target datalayout = "e-m:e-p270:32:32-p271:32:32-p272:64:64-i64:64-i128:128-f80:128-n8:16:32:64-S128"
target triple = "x86_64-pc-linux-gnu"

%"struct.faiss::ScalarQuantizer::SQuantizer" = type { ptr }
%"struct.faiss::(anonymous namespace)::QuantizerTemplate.6" = type { %"struct.faiss::ScalarQuantizer::SQuantizer", i64, float, float }
%"struct.faiss::ScalarQuantizer::SQDistanceComputer" = type { %"struct.faiss::FlatCodesDistanceComputer", ptr }
%"struct.faiss::FlatCodesDistanceComputer" = type { %"struct.faiss::DistanceComputer", ptr, i64 }
%"struct.faiss::DistanceComputer" = type { ptr }
%"struct.faiss::(anonymous namespace)::DCTemplate.21" = type { %"struct.faiss::ScalarQuantizer::SQDistanceComputer", %"struct.faiss::(anonymous namespace)::QuantizerTemplate.6" }
%"struct.faiss::(anonymous namespace)::SimilarityIP" = type <{ ptr, ptr, float, [4 x i8] }>

; Function Attrs: mustprogress nounwind uwtable
define internal void @_ZN5faiss12_GLOBAL__N_112SimilarityIPILi1EEC2EPKf(ptr noundef nonnull align 8 dereferenceable(20) %0, ptr noundef %1) unnamed_addr #1 align 2 {
  %3 = alloca ptr, align 8
  %4 = alloca ptr, align 8
  store ptr %0, ptr %3, align 8
  store ptr %1, ptr %4, align 8
  %5 = load ptr, ptr %3, align 8
  %6 = getelementptr inbounds %"struct.faiss::(anonymous namespace)::SimilarityIP", ptr %5, i32 0, i32 0
  %7 = load ptr, ptr %4, align 8
  store ptr %7, ptr %6, align 8
  ret void
}

; Function Attrs: mustprogress uwtable
define internal noundef float @_ZNK5faiss12_GLOBAL__N_110DCTemplateINS0_17QuantizerTemplateINS0_9Codec4bitELb1ELi1EEENS0_12SimilarityIPILi1EEELi1EE21compute_code_distanceEPKhS9_(ptr noundef nonnull align 8 dereferenceable(56) %0, ptr noundef %1, ptr noundef %2) #0 align 2 {
  %4 = alloca ptr, align 8
  %5 = alloca ptr, align 8
  %6 = alloca float, align 4
  %7 = alloca float, align 4
  %8 = alloca ptr, align 8
  %9 = alloca ptr, align 8
  %10 = alloca i32, align 4
  %11 = alloca ptr, align 8
  %12 = alloca ptr, align 8
  %13 = alloca i32, align 4
  %14 = alloca float, align 4
  %15 = alloca ptr, align 8
  %16 = alloca i32, align 4
  %17 = alloca ptr, align 8
  %18 = alloca ptr, align 8
  %19 = alloca i32, align 4
  %20 = alloca float, align 4
  %21 = alloca ptr, align 8
  %22 = alloca ptr, align 8
  %23 = alloca ptr, align 8
  %24 = alloca %"struct.faiss::(anonymous namespace)::SimilarityIP", align 8
  %25 = alloca i64, align 8
  %26 = alloca float, align 4
  %27 = alloca float, align 4
  store ptr %0, ptr %21, align 8
  store ptr %1, ptr %22, align 8
  store ptr %2, ptr %23, align 8
  %28 = load ptr, ptr %21, align 8
  call void @_ZN5faiss12_GLOBAL__N_112SimilarityIPILi1EEC2EPKf(ptr noundef nonnull align 8 dereferenceable(20) %24, ptr noundef null)
  store ptr %24, ptr %8, align 8
  %29 = load ptr, ptr %8, align 8
  %30 = getelementptr inbounds %"struct.faiss::(anonymous namespace)::SimilarityIP", ptr %29, i32 0, i32 2
  store float 0.000000e+00, ptr %30, align 8
  %31 = load ptr, ptr %29, align 8
  %32 = getelementptr inbounds %"struct.faiss::(anonymous namespace)::SimilarityIP", ptr %29, i32 0, i32 1
  store ptr %31, ptr %32, align 8
  store i64 0, ptr %25, align 8
  br label %33

33:                                               ; preds = %104, %3
  %34 = load i64, ptr %25, align 8
  %35 = getelementptr inbounds %"struct.faiss::(anonymous namespace)::DCTemplate.21", ptr %28, i32 0, i32 1
  %36 = getelementptr inbounds %"struct.faiss::(anonymous namespace)::QuantizerTemplate.6", ptr %35, i32 0, i32 1
  %37 = load i64, ptr %36, align 8
  %38 = icmp ult i64 %34, %37
  br i1 %38, label %39, label %107

39:                                               ; preds = %33
  %40 = getelementptr inbounds %"struct.faiss::(anonymous namespace)::DCTemplate.21", ptr %28, i32 0, i32 1
  %41 = load ptr, ptr %22, align 8
  %42 = load i64, ptr %25, align 8
  %43 = trunc i64 %42 to i32
  store ptr %40, ptr %11, align 8
  store ptr %41, ptr %12, align 8
  store i32 %43, ptr %13, align 4
  %44 = load ptr, ptr %11, align 8
  %45 = load ptr, ptr %12, align 8
  %46 = load i32, ptr %13, align 4
  store ptr %45, ptr %9, align 8
  store i32 %46, ptr %10, align 4
  %47 = load ptr, ptr %9, align 8
  %48 = load i32, ptr %10, align 4
  %49 = sdiv i32 %48, 2
  %50 = sext i32 %49 to i64
  %51 = getelementptr inbounds i8, ptr %47, i64 %50
  %52 = load i8, ptr %51, align 1
  %53 = zext i8 %52 to i32
  %54 = load i32, ptr %10, align 4
  %55 = and i32 %54, 1
  %56 = shl i32 %55, 2
  %57 = ashr i32 %53, %56
  %58 = and i32 %57, 15
  %59 = sitofp i32 %58 to float
  %60 = fadd float %59, 5.000000e-01
  %61 = fdiv float %60, 1.500000e+01
  store float %61, ptr %14, align 4
  %62 = getelementptr inbounds %"struct.faiss::(anonymous namespace)::QuantizerTemplate.6", ptr %44, i32 0, i32 2
  %63 = load float, ptr %62, align 8
  %64 = load float, ptr %14, align 4
  %65 = getelementptr inbounds %"struct.faiss::(anonymous namespace)::QuantizerTemplate.6", ptr %44, i32 0, i32 3
  %66 = load float, ptr %65, align 4
  %67 = call noundef float @llvm.fmuladd.f32(float %64, float %66, float %63)
  store float %67, ptr %26, align 4
  %68 = getelementptr inbounds %"struct.faiss::(anonymous namespace)::DCTemplate.21", ptr %28, i32 0, i32 1
  %69 = load ptr, ptr %23, align 8
  %70 = load i64, ptr %25, align 8
  %71 = trunc i64 %70 to i32
  store ptr %68, ptr %17, align 8
  store ptr %69, ptr %18, align 8
  store i32 %71, ptr %19, align 4
  %72 = load ptr, ptr %17, align 8
  %73 = load ptr, ptr %18, align 8
  %74 = load i32, ptr %19, align 4
  store ptr %73, ptr %15, align 8
  store i32 %74, ptr %16, align 4
  %75 = load ptr, ptr %15, align 8
  %76 = load i32, ptr %16, align 4
  %77 = sdiv i32 %76, 2
  %78 = sext i32 %77 to i64
  %79 = getelementptr inbounds i8, ptr %75, i64 %78
  %80 = load i8, ptr %79, align 1
  %81 = zext i8 %80 to i32
  %82 = load i32, ptr %16, align 4
  %83 = and i32 %82, 1
  %84 = shl i32 %83, 2
  %85 = ashr i32 %81, %84
  %86 = and i32 %85, 15
  %87 = sitofp i32 %86 to float
  %88 = fadd float %87, 5.000000e-01
  %89 = fdiv float %88, 1.500000e+01
  store float %89, ptr %20, align 4
  %90 = getelementptr inbounds %"struct.faiss::(anonymous namespace)::QuantizerTemplate.6", ptr %72, i32 0, i32 2
  %91 = load float, ptr %90, align 8
  %92 = load float, ptr %20, align 4
  %93 = getelementptr inbounds %"struct.faiss::(anonymous namespace)::QuantizerTemplate.6", ptr %72, i32 0, i32 3
  %94 = load float, ptr %93, align 4
  %95 = call noundef float @llvm.fmuladd.f32(float %92, float %94, float %91)
  store float %95, ptr %27, align 4
  %96 = load float, ptr %26, align 4
  %97 = load float, ptr %27, align 4
  store ptr %24, ptr %5, align 8
  store float %96, ptr %6, align 4
  store float %97, ptr %7, align 4
  %98 = load ptr, ptr %5, align 8
  %99 = load float, ptr %6, align 4
  %100 = load float, ptr %7, align 4
  %101 = getelementptr inbounds %"struct.faiss::(anonymous namespace)::SimilarityIP", ptr %98, i32 0, i32 2
  %102 = load float, ptr %101, align 8
  %103 = call float @llvm.fmuladd.f32(float %99, float %100, float %102)
  store float %103, ptr %101, align 8
  br label %104

104:                                              ; preds = %39
  %105 = load i64, ptr %25, align 8
  %106 = add i64 %105, 1
  store i64 %106, ptr %25, align 8
  br label %33, !llvm.loop !63

107:                                              ; preds = %33
  store ptr %24, ptr %4, align 8
  %108 = load ptr, ptr %4, align 8
  %109 = getelementptr inbounds %"struct.faiss::(anonymous namespace)::SimilarityIP", ptr %108, i32 0, i32 2
  %110 = load float, ptr %109, align 8
  ret float %110
}

; Function Attrs: mustprogress uwtable
define internal noundef float @_ZN5faiss12_GLOBAL__N_110DCTemplateINS0_17QuantizerTemplateINS0_9Codec4bitELb1ELi1EEENS0_12SimilarityIPILi1EEELi1EE13symmetric_disEll(ptr noundef nonnull align 8 dereferenceable(56) %0, i64 noundef %1, i64 noundef %2) unnamed_addr #0 align 2 {
  %4 = alloca ptr, align 8
  %5 = alloca i64, align 8
  %6 = alloca i64, align 8
  store ptr %0, ptr %4, align 8
  store i64 %1, ptr %5, align 8
  store i64 %2, ptr %6, align 8
  %7 = load ptr, ptr %4, align 8
  %8 = getelementptr inbounds %"struct.faiss::FlatCodesDistanceComputer", ptr %7, i32 0, i32 1
  %9 = load ptr, ptr %8, align 8
  %10 = load i64, ptr %5, align 8
  %11 = getelementptr inbounds %"struct.faiss::FlatCodesDistanceComputer", ptr %7, i32 0, i32 2
  %12 = load i64, ptr %11, align 8
  %13 = mul i64 %10, %12
  %14 = getelementptr inbounds i8, ptr %9, i64 %13
  %15 = getelementptr inbounds %"struct.faiss::FlatCodesDistanceComputer", ptr %7, i32 0, i32 1
  %16 = load ptr, ptr %15, align 8
  %17 = load i64, ptr %6, align 8
  %18 = getelementptr inbounds %"struct.faiss::FlatCodesDistanceComputer", ptr %7, i32 0, i32 2
  %19 = load i64, ptr %18, align 8
  %20 = mul i64 %17, %19
  %21 = getelementptr inbounds i8, ptr %16, i64 %20
  %22 = call noundef float @_ZNK5faiss12_GLOBAL__N_110DCTemplateINS0_17QuantizerTemplateINS0_9Codec4bitELb1ELi1EEENS0_12SimilarityIPILi1EEELi1EE21compute_code_distanceEPKhS9_(ptr noundef nonnull align 8 dereferenceable(56) %7, ptr noundef %14, ptr noundef %21)
  ret float %22
}