; Function Attrs: mustprogress nofree norecurse nosync nounwind willreturn memory(read, inaccessiblemem: none) uwtable
define internal noundef float @_ZN5faiss12_GLOBAL__N_110DCTemplateINS0_17QuantizerTemplateINS0_9Codec4bitELb1ELi1EEENS0_12SimilarityIPILi1EEELi1EE13symmetric_disEll(ptr nocapture noundef nonnull readonly align 8 dereferenceable(56) %0, i64 noundef %1, i64 noundef %2) unnamed_addr #20 align 2 {
  %4 = getelementptr inbounds i8, ptr %0, i64 8
  %5 = load ptr, ptr %4, align 8
  %6 = getelementptr inbounds i8, ptr %0, i64 16
  %7 = load i64, ptr %6, align 8
  %8 = mul i64 %7, %1
  %9 = getelementptr inbounds i8, ptr %5, i64 %8
  %10 = mul i64 %7, %2
  %11 = getelementptr inbounds i8, ptr %5, i64 %10
  %12 = getelementptr inbounds i8, ptr %0, i64 40
  %13 = load i64, ptr %12, align 8
  %.not.i = icmp eq i64 %13, 0
  br i1 %.not.i, label %_ZNK5faiss12_GLOBAL__N_110DCTemplateINS0_17QuantizerTemplateINS0_9Codec4bitELb1ELi1EEENS0_12SimilarityIPILi1EEELi1EE21compute_code_distanceEPKhS9_.exit, label %.lr.ph.i

.lr.ph.i:                                         ; preds = %3
  %14 = getelementptr inbounds i8, ptr %0, i64 48
  %15 = load float, ptr %14, align 8
  %16 = getelementptr inbounds i8, ptr %0, i64 52
  %17 = load float, ptr %16, align 4
  br label %18

18:                                               ; preds = %18, %.lr.ph.i
  %.029.i = phi i64 [ 0, %.lr.ph.i ], [ %43, %18 ]
  %.sroa.3.028.i = phi float [ 0.000000e+00, %.lr.ph.i ], [ %42, %18 ]
  %19 = trunc i64 %.029.i to i32
  %20 = sdiv i32 %19, 2
  %21 = sext i32 %20 to i64
  %22 = getelementptr inbounds i8, ptr %9, i64 %21
  %23 = load i8, ptr %22, align 1
  %24 = zext i8 %23 to i32
  %25 = shl i32 %19, 2
  %26 = and i32 %25, 4
  %27 = lshr i32 %24, %26
  %28 = and i32 %27, 15
  %29 = sitofp i32 %28 to float
  %30 = fadd float %29, 5.000000e-01
  %31 = fdiv float %30, 1.500000e+01
  %32 = tail call noundef float @llvm.fmuladd.f32(float %31, float %17, float %15)
  %33 = getelementptr inbounds i8, ptr %11, i64 %21
  %34 = load i8, ptr %33, align 1
  %35 = zext i8 %34 to i32
  %36 = lshr i32 %35, %26
  %37 = and i32 %36, 15
  %38 = sitofp i32 %37 to float
  %39 = fadd float %38, 5.000000e-01
  %40 = fdiv float %39, 1.500000e+01
  %41 = tail call noundef float @llvm.fmuladd.f32(float %40, float %17, float %15)
  %42 = tail call float @llvm.fmuladd.f32(float %32, float %41, float %.sroa.3.028.i)
  %43 = add nuw i64 %.029.i, 1
  %exitcond.not.i = icmp eq i64 %43, %13
  br i1 %exitcond.not.i, label %_ZNK5faiss12_GLOBAL__N_110DCTemplateINS0_17QuantizerTemplateINS0_9Codec4bitELb1ELi1EEENS0_12SimilarityIPILi1EEELi1EE21compute_code_distanceEPKhS9_.exit, label %18, !llvm.loop !62

_ZNK5faiss12_GLOBAL__N_110DCTemplateINS0_17QuantizerTemplateINS0_9Codec4bitELb1ELi1EEENS0_12SimilarityIPILi1EEELi1EE21compute_code_distanceEPKhS9_.exit: ; preds = %18, %3
  %.sroa.3.0.lcssa.i = phi float [ 0.000000e+00, %3 ], [ %42, %18 ]
  ret float %.sroa.3.0.lcssa.i
}